; Function Attrs: mustprogress uwtable
define hidden noundef double @_ZN3sls12bv_lookahead14lookahead_flipEj(ptr noundef nonnull align 8 dereferenceable(400) %0, i32 noundef %1) local_unnamed_addr #3 align 2 {
  %3 = getelementptr inbounds nuw i8, ptr %0, i64 32
  %4 = load ptr, ptr %3, align 8, !tbaa !92
  %5 = getelementptr inbounds nuw i8, ptr %4, i64 128
  %6 = getelementptr inbounds nuw i8, ptr %4, i64 144
  %7 = load ptr, ptr %6, align 8, !tbaa !194
  %8 = icmp eq ptr %7, null
  br i1 %8, label %_ZNK3sls7context7is_unitEj.exit.thread, label %_ZNK6vectorIjLb0EjE4sizeEv.exit.i.i

_ZNK6vectorIjLb0EjE4sizeEv.exit.i.i:              ; preds = %2
  %9 = getelementptr inbounds i8, ptr %7, i64 -4
  %10 = load i32, ptr %9, align 4, !tbaa !133
  %11 = icmp ult i32 %1, %10
  br i1 %11, label %12, label %_ZNK3sls7context7is_unitEj.exit.thread

12:                                               ; preds = %_ZNK6vectorIjLb0EjE4sizeEv.exit.i.i
  %13 = zext i32 %1 to i64
  %14 = getelementptr inbounds nuw i32, ptr %7, i64 %13
  %15 = load i32, ptr %14, align 4, !tbaa !133
  %16 = load i32, ptr %5, align 8, !tbaa !200
  %17 = icmp ult i32 %15, %16
  br i1 %17, label %_ZNK3sls7context7is_unitEj.exit, label %_ZNK3sls7context7is_unitEj.exit.thread

_ZNK3sls7context7is_unitEj.exit:                  ; preds = %12
  %18 = getelementptr inbounds nuw i8, ptr %4, i64 136
  %19 = load ptr, ptr %18, align 8, !tbaa !194
  %20 = zext i32 %15 to i64
  %21 = getelementptr inbounds nuw i32, ptr %19, i64 %20
  %22 = load i32, ptr %21, align 4, !tbaa !133
  %23 = icmp eq i32 %22, %1
  br i1 %23, label %34, label %_ZNK3sls7context7is_unitEj.exit.thread

_ZNK3sls7context7is_unitEj.exit.thread:           ; preds = %2, %_ZNK6vectorIjLb0EjE4sizeEv.exit.i.i, %12, %_ZNK3sls7context7is_unitEj.exit
  %24 = getelementptr inbounds nuw i8, ptr %4, i64 80
  %25 = load ptr, ptr %24, align 8, !tbaa !132
  %26 = icmp eq ptr %25, null
  br i1 %26, label %_ZN3sls7context4atomEj.exit, label %_ZNK6vectorIP4exprLb0EjE3getEjRKS1_.exit.i.i

_ZNK6vectorIP4exprLb0EjE3getEjRKS1_.exit.i.i:     ; preds = %_ZNK3sls7context7is_unitEj.exit.thread
  %27 = getelementptr inbounds i8, ptr %25, i64 -4
  %28 = load i32, ptr %27, align 4, !tbaa !133
  %.not.i.i.i = icmp ult i32 %1, %28
  br i1 %.not.i.i.i, label %_ZNK6vectorIP4exprLb0EjE3getEjRKS1_.exit.then.i.i, label %_ZN3sls7context4atomEj.exit

_ZNK6vectorIP4exprLb0EjE3getEjRKS1_.exit.then.i.i: ; preds = %_ZNK6vectorIP4exprLb0EjE3getEjRKS1_.exit.i.i
  %29 = zext i32 %1 to i64
  %30 = getelementptr inbounds nuw ptr, ptr %25, i64 %29
  %.then.val.i.i = load ptr, ptr %30, align 8, !tbaa !134
  br label %_ZN3sls7context4atomEj.exit

_ZN3sls7context4atomEj.exit:                      ; preds = %_ZNK3sls7context7is_unitEj.exit.thread, %_ZNK6vectorIP4exprLb0EjE3getEjRKS1_.exit.i.i, %_ZNK6vectorIP4exprLb0EjE3getEjRKS1_.exit.then.i.i
  %31 = phi ptr [ %.then.val.i.i, %_ZNK6vectorIP4exprLb0EjE3getEjRKS1_.exit.then.i.i ], [ null, %_ZNK6vectorIP4exprLb0EjE3getEjRKS1_.exit.i.i ], [ null, %_ZNK3sls7context7is_unitEj.exit.thread ]
  %32 = getelementptr inbounds nuw i8, ptr %0, i64 200
  %33 = tail call noundef double @_ZN3sls12bv_lookahead16lookahead_updateEP4exprRKNS_5bvectE(ptr noundef nonnull align 8 dereferenceable(400) %0, ptr noundef %31, ptr noundef nonnull align 8 dereferenceable(20) %32)
  br label %34

34:                                               ; preds = %_ZNK3sls7context7is_unitEj.exit, %_ZN3sls7context4atomEj.exit
  %.0 = phi double [ %33, %_ZN3sls7context4atomEj.exit ], [ -1.000000e+02, %_ZNK3sls7context7is_unitEj.exit ]
  ret double %.0
}